target datalayout = "e-m:e-p270:32:32-p271:32:32-p272:64:64-i64:64-i128:128-f80:128-n8:16:32:64-S128"
target triple = "x86_64-unknown-linux-gnu"

%"struct.std::atomic" = type { %"struct.std::__atomic_base" }
%"struct.std::__atomic_base" = type { i8 }
%"class.grpc_core::RefCountedPtr.14" = type { ptr }
%"class.grpc_core::promise_detail::TrySeq" = type { %"struct.grpc_core::promise_detail::SeqState" }
%"struct.grpc_core::promise_detail::SeqState" = type <{ %union.anon.23, i8, [7 x i8] }>
%union.anon.23 = type { %"struct.grpc_core::promise_detail::SeqState<grpc_core::promise_detail::TrySeqTraits, grpc_core::Sleep, (lambda at /home/dtcxzyw/WorkSpace/Projects/compilers/llvm-opt-benchmark/bench/grpc/grpc/src/core/ext/filters/channel_idle/legacy_channel_idle_filter.cc:188:13), (lambda at /home/dtcxzyw/WorkSpace/Projects/compilers/llvm-opt-benchmark/bench/grpc/grpc/src/core/ext/filters/channel_idle/legacy_channel_idle_filter.cc:210:13)>::Running1" }
%"struct.grpc_core::promise_detail::SeqState<grpc_core::promise_detail::TrySeqTraits, grpc_core::Sleep, (lambda at /home/dtcxzyw/WorkSpace/Projects/compilers/llvm-opt-benchmark/bench/grpc/grpc/src/core/ext/filters/channel_idle/legacy_channel_idle_filter.cc:188:13), (lambda at /home/dtcxzyw/WorkSpace/Projects/compilers/llvm-opt-benchmark/bench/grpc/grpc/src/core/ext/filters/channel_idle/legacy_channel_idle_filter.cc:210:13)>::Running1" = type { %union.anon.24, %"class.grpc_core::promise_detail::OncePromiseFactory.27" }
%union.anon.24 = type { %"struct.grpc_core::promise_detail::SeqState<grpc_core::promise_detail::TrySeqTraits, grpc_core::Sleep, (lambda at /home/dtcxzyw/WorkSpace/Projects/compilers/llvm-opt-benchmark/bench/grpc/grpc/src/core/ext/filters/channel_idle/legacy_channel_idle_filter.cc:188:13), (lambda at /home/dtcxzyw/WorkSpace/Projects/compilers/llvm-opt-benchmark/bench/grpc/grpc/src/core/ext/filters/channel_idle/legacy_channel_idle_filter.cc:210:13)>::Running0" }
%"struct.grpc_core::promise_detail::SeqState<grpc_core::promise_detail::TrySeqTraits, grpc_core::Sleep, (lambda at /home/dtcxzyw/WorkSpace/Projects/compilers/llvm-opt-benchmark/bench/grpc/grpc/src/core/ext/filters/channel_idle/legacy_channel_idle_filter.cc:188:13), (lambda at /home/dtcxzyw/WorkSpace/Projects/compilers/llvm-opt-benchmark/bench/grpc/grpc/src/core/ext/filters/channel_idle/legacy_channel_idle_filter.cc:210:13)>::Running0" = type { %"class.grpc_core::promise_detail::PromiseLike", %"class.grpc_core::promise_detail::OncePromiseFactory" }
%"class.grpc_core::promise_detail::PromiseLike" = type { %"class.grpc_core::Sleep" }
%"class.grpc_core::Sleep" = type { %"class.grpc_core::Timestamp", ptr }
%"class.grpc_core::Timestamp" = type { i64 }
%"class.grpc_core::promise_detail::OncePromiseFactory" = type { %class.anon.25 }
%class.anon.25 = type { ptr }
%"class.grpc_core::promise_detail::OncePromiseFactory.27" = type { %class.anon.28 }
%class.anon.28 = type { ptr }
%class.anon.29 = type { %"class.grpc_core::RefCountedPtr.14", ptr }
%struct.grpc_closure = type { %union.anon.15, ptr, ptr, %union.anon.16 }
%union.anon.15 = type { ptr }
%union.anon.16 = type { i64 }
%struct.grpc_channel_stack = type { %struct.grpc_stream_refcount, i64, i64, %"class.grpc_core::ManualConstructor.19", %"class.grpc_core::ManualConstructor.20" }
%struct.grpc_stream_refcount = type { %"class.grpc_core::RefCount", %struct.grpc_closure }
%"class.grpc_core::RefCount" = type { %"struct.std::atomic.17" }
%"struct.std::atomic.17" = type { %"struct.std::__atomic_base.18" }
%"struct.std::__atomic_base.18" = type { i64 }
%"class.grpc_core::ManualConstructor.19" = type { [32 x i8] }
%"class.grpc_core::ManualConstructor.20" = type { [16 x i8] }
%"class.absl::lts_20230802::Mutex" = type { %"struct.std::atomic.17" }
%"class.grpc_core::Orphanable" = type { ptr }
%"class.grpc_core::promise_detail::PromiseActivity" = type { %"class.grpc_core::promise_detail::FreestandingActivity", %"class.grpc_core::ExecCtxWakeupScheduler::BoundScheduler", %"class.grpc_core::promise_detail::ActivityContexts", %class.anon.29, i8, %"struct.std::atomic", [6 x i8], %"union.grpc_core::promise_detail::PromiseActivity<grpc_core::promise_detail::TrySeq<grpc_core::Sleep, (lambda at /home/dtcxzyw/WorkSpace/Projects/compilers/llvm-opt-benchmark/bench/grpc/grpc/src/core/ext/filters/channel_idle/legacy_channel_idle_filter.cc:188:13), (lambda at /home/dtcxzyw/WorkSpace/Projects/compilers/llvm-opt-benchmark/bench/grpc/grpc/src/core/ext/filters/channel_idle/legacy_channel_idle_filter.cc:210:13)>, grpc_core::ExecCtxWakeupScheduler, (lambda at /home/dtcxzyw/WorkSpace/Projects/compilers/llvm-opt-benchmark/bench/grpc/grpc/src/core/ext/filters/channel_idle/legacy_channel_idle_filter.cc:214:9), grpc_event_engine::experimental::EventEngine *>::PromiseHolder" }
%"class.grpc_core::promise_detail::FreestandingActivity" = type { %"class.grpc_core::Activity", %"class.grpc_core::Wakeable", %"class.absl::lts_20230802::Mutex", %"struct.std::atomic.229", i8, ptr }
%"class.grpc_core::Activity" = type { %"class.grpc_core::Orphanable" }
%"class.grpc_core::Wakeable" = type { ptr }
%"struct.std::atomic.229" = type { %"struct.std::__atomic_base.230" }
%"struct.std::__atomic_base.230" = type { i32 }
%"class.grpc_core::ExecCtxWakeupScheduler::BoundScheduler" = type { %struct.grpc_closure }
%"class.grpc_core::promise_detail::ActivityContexts" = type { %"class.grpc_core::promise_detail::ContextHolder" }
%"class.grpc_core::promise_detail::ContextHolder" = type { ptr }
%"union.grpc_core::promise_detail::PromiseActivity<grpc_core::promise_detail::TrySeq<grpc_core::Sleep, (lambda at /home/dtcxzyw/WorkSpace/Projects/compilers/llvm-opt-benchmark/bench/grpc/grpc/src/core/ext/filters/channel_idle/legacy_channel_idle_filter.cc:188:13), (lambda at /home/dtcxzyw/WorkSpace/Projects/compilers/llvm-opt-benchmark/bench/grpc/grpc/src/core/ext/filters/channel_idle/legacy_channel_idle_filter.cc:210:13)>, grpc_core::ExecCtxWakeupScheduler, (lambda at /home/dtcxzyw/WorkSpace/Projects/compilers/llvm-opt-benchmark/bench/grpc/grpc/src/core/ext/filters/channel_idle/legacy_channel_idle_filter.cc:214:9), grpc_event_engine::experimental::EventEngine *>::PromiseHolder" = type { %"class.grpc_core::promise_detail::PromiseLike.231" }
%"class.grpc_core::promise_detail::PromiseLike.231" = type { %"class.grpc_core::promise_detail::TrySeq" }

@_ZTVN9grpc_core14promise_detail20FreestandingActivityE = external unnamed_addr constant { [12 x ptr], [6 x ptr] }, align 8
@.str.16 = private unnamed_addr constant [119 x i8] c"generated/home/dtcxzyw/WorkSpace/Projects/compilers/llvm-opt-benchmark/bench/grpc/grpc/src/core/lib/promise/activity.h\00", align 1
@.str.21 = private unnamed_addr constant [6 x i8] c"done_\00", align 1

; Function Attrs: mustprogress nounwind uwtable
define linkonce_odr noundef zeroext i1 @_ZN9grpc_core8RefCount5UnrefEv(ptr noundef nonnull align 8 dereferenceable(8) %this) #5 comdat align 2 {
entry:
  %this.addr.i = alloca ptr, align 8
  %__i.addr.i = alloca i64, align 8
  %__m.addr.i = alloca i32, align 4
  %.atomictmp.i = alloca i64, align 8
  %atomic-temp.i = alloca i64, align 8
  %this.addr = alloca ptr, align 8
  %prior = alloca i64, align 8
  store ptr %this, ptr %this.addr, align 8
  %this1 = load ptr, ptr %this.addr, align 8
  %value_ = getelementptr inbounds %"class.grpc_core::RefCount", ptr %this1, i32 0, i32 0
  store ptr %value_, ptr %this.addr.i, align 8
  store i64 1, ptr %__i.addr.i, align 8
  store i32 4, ptr %__m.addr.i, align 4
  %this1.i = load ptr, ptr %this.addr.i, align 8
  %0 = load i32, ptr %__m.addr.i, align 4
  %1 = load i64, ptr %__i.addr.i, align 8
  store i64 %1, ptr %.atomictmp.i, align 8
  switch i32 %0, label %monotonic.i [
    i32 1, label %acquire.i
    i32 2, label %acquire.i
    i32 3, label %release.i
    i32 4, label %acqrel.i
    i32 5, label %seqcst.i
  ]

monotonic.i:                                      ; preds = %entry
  %2 = load i64, ptr %.atomictmp.i, align 8
  %3 = atomicrmw sub ptr %this1.i, i64 %2 monotonic, align 8
  store i64 %3, ptr %atomic-temp.i, align 8
  br label %_ZNSt13__atomic_baseIlE9fetch_subElSt12memory_order.exit

acquire.i:                                        ; preds = %entry, %entry
  %4 = load i64, ptr %.atomictmp.i, align 8
  %5 = atomicrmw sub ptr %this1.i, i64 %4 acquire, align 8
  store i64 %5, ptr %atomic-temp.i, align 8
  br label %_ZNSt13__atomic_baseIlE9fetch_subElSt12memory_order.exit

release.i:                                        ; preds = %entry
  %6 = load i64, ptr %.atomictmp.i, align 8
  %7 = atomicrmw sub ptr %this1.i, i64 %6 release, align 8
  store i64 %7, ptr %atomic-temp.i, align 8
  br label %_ZNSt13__atomic_baseIlE9fetch_subElSt12memory_order.exit

acqrel.i:                                         ; preds = %entry
  %8 = load i64, ptr %.atomictmp.i, align 8
  %9 = atomicrmw sub ptr %this1.i, i64 %8 acq_rel, align 8
  store i64 %9, ptr %atomic-temp.i, align 8
  br label %_ZNSt13__atomic_baseIlE9fetch_subElSt12memory_order.exit

seqcst.i:                                         ; preds = %entry
  %10 = load i64, ptr %.atomictmp.i, align 8
  %11 = atomicrmw sub ptr %this1.i, i64 %10 seq_cst, align 8
  store i64 %11, ptr %atomic-temp.i, align 8
  br label %_ZNSt13__atomic_baseIlE9fetch_subElSt12memory_order.exit

_ZNSt13__atomic_baseIlE9fetch_subElSt12memory_order.exit: ; preds = %seqcst.i, %acqrel.i, %release.i, %acquire.i, %monotonic.i
  %12 = load i64, ptr %atomic-temp.i, align 8
  store i64 %12, ptr %prior, align 8
  %13 = load i64, ptr %prior, align 8
  %cmp = icmp eq i64 %13, 1
  ret i1 %cmp
}

; Function Attrs: mustprogress uwtable
define linkonce_odr void @_Z17grpc_stream_unrefP20grpc_stream_refcount(ptr noundef %refcount) #4 comdat {
entry:
  %refcount.addr = alloca ptr, align 8
  store ptr %refcount, ptr %refcount.addr, align 8
  %0 = load ptr, ptr %refcount.addr, align 8
  %refs = getelementptr inbounds %struct.grpc_stream_refcount, ptr %0, i32 0, i32 0
  %call = call noundef zeroext i1 @_ZN9grpc_core8RefCount5UnrefEv(ptr noundef nonnull align 8 dereferenceable(8) %refs)
  br i1 %call, label %if.then, label %if.end

if.then:                                          ; preds = %entry
  %1 = load ptr, ptr %refcount.addr, align 8
  call void @_Z19grpc_stream_destroyP20grpc_stream_refcount(ptr noundef %1)
  br label %if.end

if.end:                                           ; preds = %if.then, %entry
  ret void
}

; Function Attrs: mustprogress nounwind uwtable
define linkonce_odr void @_ZN9grpc_core10OrphanableD2Ev(ptr noundef nonnull align 8 dereferenceable(8) %this) unnamed_addr #5 comdat align 2 {
entry:
  %this.addr = alloca ptr, align 8
  store ptr %this, ptr %this.addr, align 8
  ret void
}

; Function Attrs: mustprogress uwtable
define linkonce_odr void @_ZN18grpc_channel_stack5UnrefEv(ptr noundef nonnull align 8 dereferenceable(104) %this) #4 comdat align 2 {
entry:
  %this.addr = alloca ptr, align 8
  store ptr %this, ptr %this.addr, align 8
  %this1 = load ptr, ptr %this.addr, align 8
  br label %do.body

do.body:                                          ; preds = %entry
  %refcount = getelementptr inbounds %struct.grpc_channel_stack, ptr %this1, i32 0, i32 0
  call void @_Z17grpc_stream_unrefP20grpc_stream_refcount(ptr noundef %refcount)
  br label %do.end

do.end:                                           ; preds = %do.body
  ret void
}

; Function Attrs: mustprogress nounwind uwtable
define linkonce_odr void @_ZN9grpc_core8ActivityD2Ev(ptr noundef nonnull align 8 dereferenceable(8) %this) unnamed_addr #5 comdat align 2 {
entry:
  %this.addr = alloca ptr, align 8
  store ptr %this, ptr %this.addr, align 8
  %this1 = load ptr, ptr %this.addr, align 8
  call void @_ZN9grpc_core10OrphanableD2Ev(ptr noundef nonnull align 8 dereferenceable(8) %this1) #3
  ret void
}

; Function Attrs: mustprogress nounwind uwtable
define linkonce_odr void @_ZN9grpc_core8WakeableD2Ev(ptr noundef nonnull align 8 dereferenceable(8) %this) unnamed_addr #5 comdat align 2 {
entry:
  %this.addr = alloca ptr, align 8
  store ptr %this, ptr %this.addr, align 8
  ret void
}

; Function Attrs: mustprogress nounwind uwtable
define linkonce_odr void @_ZN9grpc_core13RefCountedPtrI18grpc_channel_stackED2Ev(ptr noundef nonnull align 8 dereferenceable(8) %this) unnamed_addr #5 comdat align 2 personality ptr @__gxx_personality_v0 {
entry:
  %this.addr = alloca ptr, align 8
  store ptr %this, ptr %this.addr, align 8
  %this1 = load ptr, ptr %this.addr, align 8
  %value_ = getelementptr inbounds %"class.grpc_core::RefCountedPtr.14", ptr %this1, i32 0, i32 0
  %0 = load ptr, ptr %value_, align 8
  %cmp = icmp ne ptr %0, null
  br i1 %cmp, label %if.then, label %if.end

if.then:                                          ; preds = %entry
  %value_2 = getelementptr inbounds %"class.grpc_core::RefCountedPtr.14", ptr %this1, i32 0, i32 0
  %1 = load ptr, ptr %value_2, align 8
  invoke void @_ZN18grpc_channel_stack5UnrefEv(ptr noundef nonnull align 8 dereferenceable(104) %1)
          to label %invoke.cont unwind label %terminate.lpad

invoke.cont:                                      ; preds = %if.then
  br label %if.end

if.end:                                           ; preds = %invoke.cont, %entry
  ret void

terminate.lpad:                                   ; preds = %if.then
  %2 = landingpad { ptr, i32 }
          catch ptr null
  %3 = extractvalue { ptr, i32 } %2, 0
  call void @__clang_call_terminate(ptr %3) #18
  unreachable
}

; Function Attrs: mustprogress nounwind uwtable
define linkonce_odr void @_ZN9grpc_core14promise_detail20FreestandingActivityD2Ev(ptr noundef nonnull align 8 dereferenceable(40) %this) unnamed_addr #5 comdat align 2 personality ptr @__gxx_personality_v0 {
entry:
  %this.addr = alloca ptr, align 8
  store ptr %this, ptr %this.addr, align 8
  %this1 = load ptr, ptr %this.addr, align 8
  store ptr getelementptr inbounds ({ [12 x ptr], [6 x ptr] }, ptr @_ZTVN9grpc_core14promise_detail20FreestandingActivityE, i32 0, i32 0, i32 2), ptr %this1, align 8
  %add.ptr = getelementptr inbounds i8, ptr %this1, i64 8
  store ptr getelementptr inbounds ({ [12 x ptr], [6 x ptr] }, ptr @_ZTVN9grpc_core14promise_detail20FreestandingActivityE, i32 0, i32 1, i32 2), ptr %add.ptr, align 8
  %handle_ = getelementptr inbounds %"class.grpc_core::promise_detail::FreestandingActivity", ptr %this1, i32 0, i32 5
  %0 = load ptr, ptr %handle_, align 8
  %tobool = icmp ne ptr %0, null
  br i1 %tobool, label %if.then, label %if.end

if.then:                                          ; preds = %entry
  invoke void @_ZN9grpc_core14promise_detail20FreestandingActivity10DropHandleEv(ptr noundef nonnull align 8 dereferenceable(40) %this1)
          to label %invoke.cont unwind label %terminate.lpad

invoke.cont:                                      ; preds = %if.then
  br label %if.end

if.end:                                           ; preds = %invoke.cont, %entry
  %mu_ = getelementptr inbounds %"class.grpc_core::promise_detail::FreestandingActivity", ptr %this1, i32 0, i32 2
  call void @_ZN4absl12lts_202308025MutexD1Ev(ptr noundef nonnull align 8 dereferenceable(8) %mu_) #3
  %1 = getelementptr inbounds i8, ptr %this1, i64 8
  call void @_ZN9grpc_core8WakeableD2Ev(ptr noundef nonnull align 8 dereferenceable(8) %1) #3
  call void @_ZN9grpc_core8ActivityD2Ev(ptr noundef nonnull align 8 dereferenceable(8) %this1) #3
  ret void

terminate.lpad:                                   ; preds = %if.then
  %2 = landingpad { ptr, i32 }
          catch ptr null
  %3 = extractvalue { ptr, i32 } %2, 0
  call void @__clang_call_terminate(ptr %3) #18
  unreachable
}

; Function Attrs: mustprogress nounwind uwtable
define internal void @"_ZZN9grpc_core18LegacyMaxAgeFilter8PostInitEvEN3$_3D2Ev"(ptr noundef nonnull align 8 dereferenceable(16) %this) unnamed_addr #5 align 2 {
entry:
  %this.addr = alloca ptr, align 8
  store ptr %this, ptr %this.addr, align 8
  %this1 = load ptr, ptr %this.addr, align 8
  %0 = getelementptr inbounds %class.anon.29, ptr %this1, i32 0, i32 0
  call void @_ZN9grpc_core13RefCountedPtrI18grpc_channel_stackED2Ev(ptr noundef nonnull align 8 dereferenceable(8) %0) #3
  ret void
}

; Function Attrs: mustprogress nounwind uwtable
define internal void @"_ZN9grpc_core14promise_detail15PromiseActivityINS0_6TrySeqINS_5SleepEJZNS_18LegacyMaxAgeFilter8PostInitEvE3$_1ZNS4_8PostInitEvE3$_2EEENS_22ExecCtxWakeupSchedulerEZNS4_8PostInitEvE3$_3JPN17grpc_event_engine12experimental11EventEngineEEE13PromiseHolderD2Ev"(ptr noundef nonnull align 8 dereferenceable(40) %this) unnamed_addr #5 align 2 {
entry:
  %this.addr = alloca ptr, align 8
  store ptr %this, ptr %this.addr, align 8
  ret void
}

; Function Attrs: mustprogress nounwind uwtable
define internal void @"_ZN9grpc_core14promise_detail15PromiseActivityINS0_6TrySeqINS_5SleepEJZNS_18LegacyMaxAgeFilter8PostInitEvE3$_1ZNS4_8PostInitEvE3$_2EEENS_22ExecCtxWakeupSchedulerEZNS4_8PostInitEvE3$_3JPN17grpc_event_engine12experimental11EventEngineEEED2Ev"(ptr noundef nonnull align 8 dereferenceable(144) %this) unnamed_addr #5 align 2 personality ptr @__gxx_personality_v0 {
entry:
  %this.addr = alloca ptr, align 8
  store ptr %this, ptr %this.addr, align 8
  %this1 = load ptr, ptr %this.addr, align 8
  br label %do.body

do.body:                                          ; preds = %entry
  %done_ = getelementptr inbounds %"class.grpc_core::promise_detail::PromiseActivity", ptr %this1, i32 0, i32 4
  %0 = load i8, ptr %done_, align 8
  %tobool = trunc i8 %0 to i1
  %lnot = xor i1 %tobool, true
  br i1 %lnot, label %if.then, label %if.end

if.then:                                          ; preds = %do.body
  invoke void @gpr_assertion_failed(ptr noundef @.str.16, i32 noundef 464, ptr noundef @.str.21) #19
          to label %invoke.cont unwind label %terminate.lpad

invoke.cont:                                      ; preds = %if.then
  unreachable

if.end:                                           ; preds = %do.body
  br label %do.cond

do.cond:                                          ; preds = %if.end
  br label %do.end

do.end:                                           ; preds = %do.cond
  %promise_holder_ = getelementptr inbounds %"class.grpc_core::promise_detail::PromiseActivity", ptr %this1, i32 0, i32 7
  call void @"_ZN9grpc_core14promise_detail15PromiseActivityINS0_6TrySeqINS_5SleepEJZNS_18LegacyMaxAgeFilter8PostInitEvE3$_1ZNS4_8PostInitEvE3$_2EEENS_22ExecCtxWakeupSchedulerEZNS4_8PostInitEvE3$_3JPN17grpc_event_engine12experimental11EventEngineEEE13PromiseHolderD2Ev"(ptr noundef nonnull align 8 dereferenceable(40) %promise_holder_) #3
  %on_done_ = getelementptr inbounds %"class.grpc_core::promise_detail::PromiseActivity", ptr %this1, i32 0, i32 3
  call void @"_ZZN9grpc_core18LegacyMaxAgeFilter8PostInitEvEN3$_3D2Ev"(ptr noundef nonnull align 8 dereferenceable(16) %on_done_) #3
  call void @_ZN9grpc_core14promise_detail20FreestandingActivityD2Ev(ptr noundef nonnull align 8 dereferenceable(40) %this1) #3
  ret void

terminate.lpad:                                   ; preds = %if.then
  %1 = landingpad { ptr, i32 }
          catch ptr null
  %2 = extractvalue { ptr, i32 } %1, 0
  call void @__clang_call_terminate(ptr %2) #18
  unreachable
}