; Function Attrs: mustprogress nounwind uwtable
define internal void @"_ZN9grpc_core14promise_detail15PromiseActivityINS0_6TrySeqINS_5SleepEJZNS_18LegacyMaxAgeFilter8PostInitEvE3$_1ZNS4_8PostInitEvE3$_2EEENS_22ExecCtxWakeupSchedulerEZNS4_8PostInitEvE3$_3JPN17grpc_event_engine12experimental11EventEngineEEED2Ev"(ptr noundef nonnull align 8 dereferenceable(144) %this) unnamed_addr #4 align 2 personality ptr @__gxx_personality_v0 {
entry:
  %done_ = getelementptr inbounds i8, ptr %this, i64 96
  %0 = load i8, ptr %done_, align 8
  %1 = and i8 %0, 1
  %tobool.not = icmp eq i8 %1, 0
  br i1 %tobool.not, label %if.then, label %do.end

if.then:                                          ; preds = %entry
  invoke void @gpr_assertion_failed(ptr noundef nonnull @.str.16, i32 noundef 464, ptr noundef nonnull @.str.21) #26
          to label %invoke.cont unwind label %terminate.lpad

invoke.cont:                                      ; preds = %if.then
  unreachable

do.end:                                           ; preds = %entry
  %on_done_ = getelementptr inbounds i8, ptr %this, i64 80
  %on_done_.val = load ptr, ptr %on_done_, align 8
  %cmp.not.i.i = icmp eq ptr %on_done_.val, null
  br i1 %cmp.not.i.i, label %"_ZZN9grpc_core18LegacyMaxAgeFilter8PostInitEvEN3$_3D2Ev.exit", label %if.then.i.i

if.then.i.i:                                      ; preds = %do.end
  %2 = atomicrmw sub ptr %on_done_.val, i64 1 acq_rel, align 8
  %cmp.i.i.i.i.i = icmp eq i64 %2, 1
  br i1 %cmp.i.i.i.i.i, label %if.then.i.i.i.i, label %"_ZZN9grpc_core18LegacyMaxAgeFilter8PostInitEvEN3$_3D2Ev.exit"

if.then.i.i.i.i:                                  ; preds = %if.then.i.i
  invoke void @_Z19grpc_stream_destroyP20grpc_stream_refcount(ptr noundef nonnull %on_done_.val)
          to label %"_ZZN9grpc_core18LegacyMaxAgeFilter8PostInitEvEN3$_3D2Ev.exit" unwind label %terminate.lpad.i.i

terminate.lpad.i.i:                               ; preds = %if.then.i.i.i.i
  %3 = landingpad { ptr, i32 }
          catch ptr null
  %4 = extractvalue { ptr, i32 } %3, 0
  tail call void @__clang_call_terminate(ptr %4) #25
  unreachable

"_ZZN9grpc_core18LegacyMaxAgeFilter8PostInitEvEN3$_3D2Ev.exit": ; preds = %do.end, %if.then.i.i, %if.then.i.i.i.i
  store ptr getelementptr inbounds ({ [12 x ptr], [6 x ptr] }, ptr @_ZTVN9grpc_core14promise_detail20FreestandingActivityE, i64 0, i32 0, i64 2), ptr %this, align 8
  %add.ptr.i = getelementptr inbounds i8, ptr %this, i64 8
  store ptr getelementptr inbounds ({ [12 x ptr], [6 x ptr] }, ptr @_ZTVN9grpc_core14promise_detail20FreestandingActivityE, i64 0, i32 1, i64 2), ptr %add.ptr.i, align 8
  %handle_.i = getelementptr inbounds i8, ptr %this, i64 32
  %5 = load ptr, ptr %handle_.i, align 8
  %tobool.not.i = icmp eq ptr %5, null
  br i1 %tobool.not.i, label %_ZN9grpc_core14promise_detail20FreestandingActivityD2Ev.exit, label %if.then.i

if.then.i:                                        ; preds = %"_ZZN9grpc_core18LegacyMaxAgeFilter8PostInitEvEN3$_3D2Ev.exit"
  invoke void @_ZN9grpc_core14promise_detail20FreestandingActivity10DropHandleEv(ptr noundef nonnull align 8 dereferenceable(40) %this)
          to label %_ZN9grpc_core14promise_detail20FreestandingActivityD2Ev.exit unwind label %terminate.lpad.i

terminate.lpad.i:                                 ; preds = %if.then.i
  %6 = landingpad { ptr, i32 }
          catch ptr null
  %7 = extractvalue { ptr, i32 } %6, 0
  tail call void @__clang_call_terminate(ptr %7) #25
  unreachable

_ZN9grpc_core14promise_detail20FreestandingActivityD2Ev.exit: ; preds = %"_ZZN9grpc_core18LegacyMaxAgeFilter8PostInitEvEN3$_3D2Ev.exit", %if.then.i
  %mu_.i = getelementptr inbounds i8, ptr %this, i64 16
  tail call void @_ZN4absl12lts_202308025MutexD1Ev(ptr noundef nonnull align 8 dereferenceable(8) %mu_.i) #24
  ret void

terminate.lpad:                                   ; preds = %if.then
  %8 = landingpad { ptr, i32 }
          catch ptr null
  %9 = extractvalue { ptr, i32 } %8, 0
  tail call void @__clang_call_terminate(ptr %9) #25
  unreachable
}